target datalayout = "e-m:e-p270:32:32-p271:32:32-p272:64:64-i64:64-i128:128-f80:128-n8:16:32:64-S128"
target triple = "x86_64-pc-linux-gnu"

%class.QString = type { %struct.QArrayDataPointer }
%struct.QArrayDataPointer = type { ptr, ptr, i64 }
%class.QPen = type { ptr }
%class.QBrush = type { %"class.std::unique_ptr" }
%"class.std::unique_ptr" = type { %"struct.std::__uniq_ptr_data" }
%"struct.std::__uniq_ptr_data" = type { %"class.std::__uniq_ptr_impl" }
%"class.std::__uniq_ptr_impl" = type { %"class.std::tuple" }
%"class.std::tuple" = type { %"struct.std::_Tuple_impl" }
%"struct.std::_Tuple_impl" = type { %"struct.std::_Head_base.1" }
%"struct.std::_Head_base.1" = type { ptr }
%class.QColor = type <{ i32, %"union.QColor::CT", [2 x i8] }>
%"union.QColor::CT" = type { %struct.anon }
%struct.anon = type { i16, i16, i16, i16, i16 }
%class.QPaintDevice.base = type <{ ptr, i16 }>
%class.TCPStreamDialog = type { %class.GeometryStateDialog, ptr, ptr, %class.QMultiMap, double, i8, %class.QMap, double, i8, %struct.tcp_graph, ptr, %class.QString, ptr, ptr, ptr, ptr, ptr, ptr, ptr, ptr, ptr, ptr, ptr, ptr, ptr, ptr, %class.QRectF, i32, [4 x i8], %class.QTransform, i8, ptr, %class.QPoint, %class.QMenu, %"class.TCPStreamDialog::GraphUpdater", i32, i32, i32, double }
%class.GeometryStateDialog = type { %class.QDialog, %class.QString }
%class.QDialog = type { %class.QWidget }
%class.QWidget = type { %class.QObject, %class.QPaintDevice.base, ptr }
%class.QObject = type { ptr, %class.QScopedPointer }
%class.QScopedPointer = type { ptr }
%class.QMultiMap = type { %"class.QtPrivate::QExplicitlySharedDataPointerV2" }
%"class.QtPrivate::QExplicitlySharedDataPointerV2" = type { ptr }
%class.QMap = type { %"class.QtPrivate::QExplicitlySharedDataPointerV2.5" }
%"class.QtPrivate::QExplicitlySharedDataPointerV2.5" = type { ptr }
%struct.tcp_graph = type { i32, %struct._address, i16, %struct._address, i16, i32, ptr }
%struct._address = type { i32, i32, ptr, ptr }
%class.QRectF = type { double, double, double, double }
%class.QTransform = type <{ [3 x [3 x double]], i16, [6 x i8] }>
%class.QPoint = type { i32, i32 }
%class.QMenu = type { %class.QWidget }
%"class.TCPStreamDialog::GraphUpdater" = type <{ ptr, ptr, i8, [7 x i8] }>
%class.Ui_TCPStreamDialog = type { ptr, ptr, ptr, ptr, ptr, ptr, ptr, ptr, ptr, ptr, ptr, ptr, ptr, ptr, ptr, ptr, ptr, ptr, ptr, ptr, ptr, ptr, ptr, ptr, ptr, ptr, ptr, ptr, ptr, ptr, ptr, ptr, ptr, ptr, ptr, ptr, ptr, ptr, ptr, ptr, ptr, ptr, ptr, ptr, ptr, ptr, ptr, ptr, ptr, ptr, ptr, ptr, ptr, ptr, ptr, ptr, ptr }
%class.QPointer = type { %class.QWeakPointer }
%class.QWeakPointer = type { ptr, ptr }
%class.QCPLayerable.base = type <{ %class.QObject, i8, [7 x i8], ptr, %class.QPointer, ptr, i8 }>
%class.QCPAbstractPlottable = type { %class.QCPLayerable.base, %class.QString, i8, i8, %class.QPen, %class.QBrush, %class.QPointer.2, %class.QPointer.2, i32, %class.QCPDataSelection, ptr }
%class.QPointer.2 = type { %class.QWeakPointer }
%class.QCPDataSelection = type { %class.QList }
%class.QList = type { %struct.QArrayDataPointer.3 }
%struct.QArrayDataPointer.3 = type { ptr, ptr, i64 }
%class.QCPItemTracer = type <{ %class.QCPAbstractItem.base, [6 x i8], ptr, %class.QPen, %class.QPen, %class.QBrush, %class.QBrush, double, i32, [4 x i8], ptr, double, i8, [7 x i8] }>
%class.QCPAbstractItem.base = type <{ %class.QCPLayerable.base, i8, [6 x i8], %class.QPointer.57, %class.QList.58, %class.QList.62, i8, i8 }>
%class.QPointer.57 = type { %class.QWeakPointer }
%class.QList.58 = type { %struct.QArrayDataPointer.61 }
%struct.QArrayDataPointer.61 = type { ptr, ptr, i64 }
%class.QList.62 = type { %struct.QArrayDataPointer.65 }
%struct.QArrayDataPointer.65 = type { ptr, ptr, i64 }
%class.QCPLayerable = type <{ %class.QObject, i8, [7 x i8], ptr, %class.QPointer, ptr, i8, [7 x i8] }>

; Function Attrs: mustprogress nounwind uwtable
define linkonce_odr noundef i32 @_ZNK13QCPItemTracer5styleEv(ptr noundef nonnull align 8 dereferenceable(209) %0) #2 comdat align 2 {
  %2 = alloca ptr, align 8
  store ptr %0, ptr %2, align 8
  %3 = load ptr, ptr %2, align 8
  %4 = getelementptr inbounds %class.QCPItemTracer, ptr %3, i32 0, i32 8
  %5 = load i32, ptr %4, align 8
  ret i32 %5
}

; Function Attrs: mustprogress nounwind uwtable
define linkonce_odr void @_ZNK13QCPItemTracer3penEv(ptr dead_on_unwind noalias writable sret(%class.QPen) align 8 %0, ptr noundef nonnull align 8 dereferenceable(209) %1) #2 comdat align 2 {
  %3 = alloca ptr, align 8
  %4 = alloca ptr, align 8
  store ptr %0, ptr %3, align 8
  store ptr %1, ptr %4, align 8
  %5 = load ptr, ptr %4, align 8
  %6 = getelementptr inbounds %class.QCPItemTracer, ptr %5, i32 0, i32 3
  call void @_ZN4QPenC1ERKS_(ptr noundef nonnull align 8 dereferenceable(8) %0, ptr noundef nonnull align 8 dereferenceable(8) %6) #3
  ret void
}

; Function Attrs: mustprogress nounwind uwtable
define linkonce_odr void @_ZNK20QCPAbstractPlottable3penEv(ptr dead_on_unwind noalias writable sret(%class.QPen) align 8 %0, ptr noundef nonnull align 8 dereferenceable(184) %1) #2 comdat align 2 {
  %3 = alloca ptr, align 8
  %4 = alloca ptr, align 8
  store ptr %0, ptr %3, align 8
  store ptr %1, ptr %4, align 8
  %5 = load ptr, ptr %4, align 8
  %6 = getelementptr inbounds %class.QCPAbstractPlottable, ptr %5, i32 0, i32 4
  call void @_ZN4QPenC1ERKS_(ptr noundef nonnull align 8 dereferenceable(8) %0, ptr noundef nonnull align 8 dereferenceable(8) %6) #3
  ret void
}

; Function Attrs: mustprogress nounwind uwtable
define linkonce_odr noundef zeroext i1 @_ZNK12QCPLayerable7visibleEv(ptr noundef nonnull align 8 dereferenceable(57) %0) #2 comdat align 2 {
  %2 = alloca ptr, align 8
  store ptr %0, ptr %2, align 8
  %3 = load ptr, ptr %2, align 8
  %4 = getelementptr inbounds %class.QCPLayerable, ptr %3, i32 0, i32 1
  %5 = load i8, ptr %4, align 8
  %6 = trunc i8 %5 to i1
  ret i1 %6
}

; Function Attrs: mustprogress uwtable
define void @_ZN15TCPStreamDialog17toggleTracerStyleEb(ptr noundef nonnull align 8 dereferenceable(584) %0, i1 noundef zeroext %1) #1 align 2 personality ptr @__gxx_personality_v0 {
  %3 = alloca ptr, align 8
  %4 = alloca i8, align 1
  %5 = alloca %class.QPen, align 8
  %6 = alloca i32, align 4
  %7 = alloca %class.QPen, align 8
  %8 = alloca ptr, align 8
  %9 = alloca i32, align 4
  %10 = alloca %class.QColor, align 4
  store ptr %0, ptr %3, align 8
  %11 = zext i1 %1 to i8
  store i8 %11, ptr %4, align 1
  %12 = load ptr, ptr %3, align 8
  %13 = getelementptr inbounds %class.TCPStreamDialog, ptr %12, i32 0, i32 25
  %14 = load ptr, ptr %13, align 8
  %15 = call noundef zeroext i1 @_ZNK12QCPLayerable7visibleEv(ptr noundef nonnull align 8 dereferenceable(57) %14)
  br i1 %15, label %20, label %16

16:                                               ; preds = %2
  %17 = load i8, ptr %4, align 1
  %18 = trunc i8 %17 to i1
  br i1 %18, label %20, label %19

19:                                               ; preds = %16
  br label %71

20:                                               ; preds = %16, %2
  %21 = getelementptr inbounds %class.TCPStreamDialog, ptr %12, i32 0, i32 1
  %22 = load ptr, ptr %21, align 8
  %23 = getelementptr inbounds %class.Ui_TCPStreamDialog, ptr %22, i32 0, i32 29
  %24 = load ptr, ptr %23, align 8
  %25 = call noundef ptr @_ZNK11QCustomPlot5graphEi(ptr noundef nonnull align 8 dereferenceable(513) %24, i32 noundef 0)
  call void @_ZNK20QCPAbstractPlottable3penEv(ptr dead_on_unwind writable sret(%class.QPen) align 8 %5, ptr noundef nonnull align 8 dereferenceable(184) %25)
  store i32 2, ptr %6, align 4
  %26 = getelementptr inbounds %class.TCPStreamDialog, ptr %12, i32 0, i32 25
  %27 = load ptr, ptr %26, align 8
  invoke void @_ZNK13QCPItemTracer3penEv(ptr dead_on_unwind writable sret(%class.QPen) align 8 %7, ptr noundef nonnull align 8 dereferenceable(209) %27)
          to label %28 unwind label %46

28:                                               ; preds = %20
  %29 = invoke { i64, i64 } @_ZNK4QPen5colorEv(ptr noundef nonnull align 8 dereferenceable(8) %5)
          to label %30 unwind label %50

30:                                               ; preds = %28
  %31 = getelementptr inbounds { i64, i64 }, ptr %10, i32 0, i32 0
  %32 = extractvalue { i64, i64 } %29, 0
  store i64 %32, ptr %31, align 4
  %33 = getelementptr inbounds { i64, i64 }, ptr %10, i32 0, i32 1
  %34 = extractvalue { i64, i64 } %29, 1
  store i64 %34, ptr %33, align 4
  %35 = load i8, ptr %4, align 1
  %36 = trunc i8 %35 to i1
  br i1 %36, label %43, label %37

37:                                               ; preds = %30
  %38 = getelementptr inbounds %class.TCPStreamDialog, ptr %12, i32 0, i32 25
  %39 = load ptr, ptr %38, align 8
  %40 = invoke noundef i32 @_ZNK13QCPItemTracer5styleEv(ptr noundef nonnull align 8 dereferenceable(209) %39)
          to label %41 unwind label %50

41:                                               ; preds = %37
  %42 = icmp ne i32 %40, 3
  br i1 %42, label %43, label %54

43:                                               ; preds = %41, %30
  store i32 3, ptr %6, align 4
  invoke void @_ZN6QColor9setAlphaFEf(ptr noundef nonnull align 4 dereferenceable(14) %10, float noundef 1.000000e+00)
          to label %44 unwind label %50

44:                                               ; preds = %43
  invoke void @_ZN4QPen9setWidthFEd(ptr noundef nonnull align 8 dereferenceable(8) %7, double noundef 1.500000e+00)
          to label %45 unwind label %50

45:                                               ; preds = %44
  br label %57

46:                                               ; preds = %20
  %47 = landingpad { ptr, i32 }
          cleanup
  %48 = extractvalue { ptr, i32 } %47, 0
  store ptr %48, ptr %8, align 8
  %49 = extractvalue { ptr, i32 } %47, 1
  store i32 %49, ptr %9, align 4
  br label %72

50:                                               ; preds = %65, %62, %61, %57, %55, %54, %44, %43, %37, %28
  %51 = landingpad { ptr, i32 }
          cleanup
  %52 = extractvalue { ptr, i32 } %51, 0
  store ptr %52, ptr %8, align 8
  %53 = extractvalue { ptr, i32 } %51, 1
  store i32 %53, ptr %9, align 4
  call void @_ZN4QPenD1Ev(ptr noundef nonnull align 8 dereferenceable(8) %7) #3
  br label %72

54:                                               ; preds = %41
  invoke void @_ZN6QColor9setAlphaFEf(ptr noundef nonnull align 4 dereferenceable(14) %10, float noundef 5.000000e-01)
          to label %55 unwind label %50

55:                                               ; preds = %54
  invoke void @_ZN4QPen9setWidthFEd(ptr noundef nonnull align 8 dereferenceable(8) %7, double noundef 1.000000e+00)
          to label %56 unwind label %50

56:                                               ; preds = %55
  br label %57

57:                                               ; preds = %56, %45
  %58 = getelementptr inbounds %class.TCPStreamDialog, ptr %12, i32 0, i32 25
  %59 = load ptr, ptr %58, align 8
  %60 = load i32, ptr %6, align 4
  invoke void @_ZN13QCPItemTracer8setStyleENS_11TracerStyleE(ptr noundef nonnull align 8 dereferenceable(209) %59, i32 noundef %60)
          to label %61 unwind label %50

61:                                               ; preds = %57
  invoke void @_ZN4QPen8setColorERK6QColor(ptr noundef nonnull align 8 dereferenceable(8) %7, ptr noundef nonnull align 4 dereferenceable(14) %10)
          to label %62 unwind label %50

62:                                               ; preds = %61
  %63 = getelementptr inbounds %class.TCPStreamDialog, ptr %12, i32 0, i32 25
  %64 = load ptr, ptr %63, align 8
  invoke void @_ZN13QCPItemTracer6setPenERK4QPen(ptr noundef nonnull align 8 dereferenceable(209) %64, ptr noundef nonnull align 8 dereferenceable(8) %7)
          to label %65 unwind label %50

65:                                               ; preds = %62
  %66 = getelementptr inbounds %class.TCPStreamDialog, ptr %12, i32 0, i32 1
  %67 = load ptr, ptr %66, align 8
  %68 = getelementptr inbounds %class.Ui_TCPStreamDialog, ptr %67, i32 0, i32 29
  %69 = load ptr, ptr %68, align 8
  invoke void @_ZN11QCustomPlot6replotENS_15RefreshPriorityE(ptr noundef nonnull align 8 dereferenceable(513) %69, i32 noundef 2)
          to label %70 unwind label %50

70:                                               ; preds = %65
  call void @_ZN4QPenD1Ev(ptr noundef nonnull align 8 dereferenceable(8) %7) #3
  call void @_ZN4QPenD1Ev(ptr noundef nonnull align 8 dereferenceable(8) %5) #3
  br label %71

71:                                               ; preds = %70, %19
  ret void

72:                                               ; preds = %50, %46
  call void @_ZN4QPenD1Ev(ptr noundef nonnull align 8 dereferenceable(8) %5) #3
  br label %73

73:                                               ; preds = %72
  %74 = load ptr, ptr %8, align 8
  %75 = load i32, ptr %9, align 4
  %76 = insertvalue { ptr, i32 } poison, ptr %74, 0
  %77 = insertvalue { ptr, i32 } %76, i32 %75, 1
  resume { ptr, i32 } %77
}