; Function Attrs: mustprogress uwtable
define void @_ZN15TCPStreamDialog17toggleTracerStyleEb(ptr nocapture noundef nonnull readonly align 8 dereferenceable(584) %0, i1 noundef zeroext %1) local_unnamed_addr #2 align 2 personality ptr @__gxx_personality_v0 {
  %3 = alloca %class.QPen, align 8
  %4 = alloca %class.QPen, align 8
  %5 = alloca %class.QColor, align 8
  %6 = getelementptr inbounds i8, ptr %0, i64 344
  %7 = load ptr, ptr %6, align 8
  %8 = getelementptr inbounds i8, ptr %7, i64 16
  %9 = load i8, ptr %8, align 8
  %10 = and i8 %9, 1
  %11 = icmp ne i8 %10, 0
  %brmerge = or i1 %11, %1
  br i1 %brmerge, label %12, label %46

12:                                               ; preds = %2
  %13 = getelementptr inbounds i8, ptr %0, i64 64
  %14 = load ptr, ptr %13, align 8
  %15 = getelementptr inbounds i8, ptr %14, i64 232
  %16 = load ptr, ptr %15, align 8
  %17 = tail call noundef ptr @_ZNK11QCustomPlot5graphEi(ptr noundef nonnull align 8 dereferenceable(513) %16, i32 noundef 0)
  %18 = getelementptr inbounds i8, ptr %17, i64 96
  call void @_ZN4QPenC1ERKS_(ptr noundef nonnull align 8 dereferenceable(8) %3, ptr noundef nonnull align 8 dereferenceable(8) %18) #24
  %19 = load ptr, ptr %6, align 8
  %20 = getelementptr inbounds i8, ptr %19, i64 144
  call void @_ZN4QPenC1ERKS_(ptr noundef nonnull align 8 dereferenceable(8) %4, ptr noundef nonnull align 8 dereferenceable(8) %20) #24
  %21 = invoke { i64, i64 } @_ZNK4QPen5colorEv(ptr noundef nonnull align 8 dereferenceable(8) %3)
          to label %22 unwind label %32

22:                                               ; preds = %12
  %23 = extractvalue { i64, i64 } %21, 0
  store i64 %23, ptr %5, align 8
  %24 = getelementptr inbounds i8, ptr %5, i64 8
  %25 = extractvalue { i64, i64 } %21, 1
  store i64 %25, ptr %24, align 8
  br i1 %1, label %30, label %26

26:                                               ; preds = %22
  %27 = load ptr, ptr %6, align 8
  %28 = getelementptr inbounds i8, ptr %27, i64 184
  %29 = load i32, ptr %28, align 8
  %.not = icmp eq i32 %29, 3
  br i1 %.not, label %34, label %30

30:                                               ; preds = %26, %22
  invoke void @_ZN6QColor9setAlphaFEf(ptr noundef nonnull align 4 dereferenceable(14) %5, float noundef 1.000000e+00)
          to label %31 unwind label %32

31:                                               ; preds = %30
  invoke void @_ZN4QPen9setWidthFEd(ptr noundef nonnull align 8 dereferenceable(8) %4, double noundef 1.500000e+00)
          to label %36 unwind label %32

32:                                               ; preds = %41, %39, %38, %36, %35, %34, %31, %30, %12
  %33 = landingpad { ptr, i32 }
          cleanup
  call void @_ZN4QPenD1Ev(ptr noundef nonnull align 8 dereferenceable(8) %4) #24
  call void @_ZN4QPenD1Ev(ptr noundef nonnull align 8 dereferenceable(8) %3) #24
  resume { ptr, i32 } %33

34:                                               ; preds = %26
  invoke void @_ZN6QColor9setAlphaFEf(ptr noundef nonnull align 4 dereferenceable(14) %5, float noundef 5.000000e-01)
          to label %35 unwind label %32

35:                                               ; preds = %34
  invoke void @_ZN4QPen9setWidthFEd(ptr noundef nonnull align 8 dereferenceable(8) %4, double noundef 1.000000e+00)
          to label %36 unwind label %32

36:                                               ; preds = %35, %31
  %.0 = phi i32 [ 3, %31 ], [ 2, %35 ]
  %37 = load ptr, ptr %6, align 8
  invoke void @_ZN13QCPItemTracer8setStyleENS_11TracerStyleE(ptr noundef nonnull align 8 dereferenceable(209) %37, i32 noundef %.0)
          to label %38 unwind label %32

38:                                               ; preds = %36
  invoke void @_ZN4QPen8setColorERK6QColor(ptr noundef nonnull align 8 dereferenceable(8) %4, ptr noundef nonnull align 4 dereferenceable(14) %5)
          to label %39 unwind label %32

39:                                               ; preds = %38
  %40 = load ptr, ptr %6, align 8
  invoke void @_ZN13QCPItemTracer6setPenERK4QPen(ptr noundef nonnull align 8 dereferenceable(209) %40, ptr noundef nonnull align 8 dereferenceable(8) %4)
          to label %41 unwind label %32

41:                                               ; preds = %39
  %42 = load ptr, ptr %13, align 8
  %43 = getelementptr inbounds i8, ptr %42, i64 232
  %44 = load ptr, ptr %43, align 8
  invoke void @_ZN11QCustomPlot6replotENS_15RefreshPriorityE(ptr noundef nonnull align 8 dereferenceable(513) %44, i32 noundef 2)
          to label %45 unwind label %32

45:                                               ; preds = %41
  call void @_ZN4QPenD1Ev(ptr noundef nonnull align 8 dereferenceable(8) %4) #24
  call void @_ZN4QPenD1Ev(ptr noundef nonnull align 8 dereferenceable(8) %3) #24
  br label %46

46:                                               ; preds = %2, %45
  ret void
}